; Function Attrs: cold mustprogress uwtable
define dso_local void @_ZN20cmComputeLinkDepends19DisplayFinalEntriesEv(ptr noundef nonnull readonly align 8 captures(none) dereferenceable(744) %0) local_unnamed_addr #9 align 2 {
  %2 = alloca i32, align 4
  %3 = load ptr, ptr @stderr, align 8, !tbaa !424
  %4 = load ptr, ptr %0, align 8, !tbaa !13
  %5 = tail call noundef nonnull align 8 dereferenceable(32) ptr @_ZNK17cmGeneratorTarget7GetNameB5cxx11Ev(ptr noundef nonnull align 8 dereferenceable(2912) %4)
  %6 = load ptr, ptr %5, align 8, !tbaa !340
  %7 = tail call i32 (ptr, ptr, ...) @fprintf(ptr noundef %3, ptr noundef nonnull @.str.41, ptr noundef %6) #34
  call void @llvm.lifetime.start.p0(i64 4, ptr nonnull %2) #30
  store i32 2, ptr %2, align 4, !tbaa !371
  %8 = getelementptr inbounds nuw i8, ptr %0, i64 112
  %9 = load ptr, ptr %8, align 8, !tbaa !618
  %10 = getelementptr inbounds nuw i8, ptr %0, i64 120
  %11 = load ptr, ptr %10, align 8, !tbaa !618
  %.not7 = icmp eq ptr %9, %11
  br i1 %.not7, label %._crit_edge, label %.lr.ph

._crit_edge:                                      ; preds = %.lr.ph, %1
  %12 = load ptr, ptr @stderr, align 8, !tbaa !424
  %fputc = tail call i32 @fputc(i32 10, ptr %12)
  call void @llvm.lifetime.end.p0(i64 4, ptr nonnull %2) #30
  ret void

.lr.ph:                                           ; preds = %1, %.lr.ph
  %.sroa.04.08 = phi ptr [ %13, %.lr.ph ], [ %9, %1 ]
  call fastcc void @_ZN12_GLOBAL__N_116DisplayLinkEntryERiRKN20cmComputeLinkDepends9LinkEntryE(ptr noundef nonnull align 4 dereferenceable(4) %2, ptr noundef nonnull align 8 dereferenceable(104) %.sroa.04.08)
  %13 = getelementptr inbounds nuw i8, ptr %.sroa.04.08, i64 104
  %.not = icmp eq ptr %13, %11
  br i1 %.not, label %._crit_edge, label %.lr.ph
}